; ModuleID = '46/1934.c'
source_filename = "46/1934.c"
target datalayout = "e-m:e-p270:32:32-p271:32:32-p272:64:64-i64:64-f80:128-n8:16:32:64-S128"
target triple = "x86_64-pc-linux-gnu"

@.str = private unnamed_addr constant [5 x i8] c"%d%d\00", align 1
@.str.1 = private unnamed_addr constant [3 x i8] c"%d\00", align 1
@.str.2 = private unnamed_addr constant [4 x i8] c"%d\0A\00", align 1

; Function Attrs: noinline nounwind uwtable
define dso_local i32 @main() #0 {
  %1 = alloca i32, align 4
  %2 = alloca i32, align 4
  %3 = alloca i32, align 4
  %4 = alloca i32, align 4
  %5 = alloca i32, align 4
  %6 = alloca i32, align 4
  %7 = alloca i32, align 4
  %8 = alloca i32, align 4
  %9 = alloca i32, align 4
  %10 = alloca [100 x [100 x i32]], align 16
  %11 = alloca i32, align 4
  %12 = alloca i32, align 4
  store i32 0, i32* %1, align 4
  store i32 0, i32* %12, align 4
  %13 = call i32 (i8*, ...) @__isoc99_scanf(i8* getelementptr inbounds ([5 x i8], [5 x i8]* @.str, i64 0, i64 0), i32* %2, i32* %3)
  store i32 0, i32* %8, align 4
  br label %14

14:                                               ; preds = %35, %0
  %15 = load i32, i32* %8, align 4
  %16 = load i32, i32* %2, align 4
  %17 = icmp slt i32 %15, %16
  br i1 %17, label %18, label %38

18:                                               ; preds = %14
  store i32 0, i32* %9, align 4
  br label %19

19:                                               ; preds = %31, %18
  %20 = load i32, i32* %9, align 4
  %21 = load i32, i32* %3, align 4
  %22 = icmp slt i32 %20, %21
  br i1 %22, label %23, label %34

23:                                               ; preds = %19
  %24 = load i32, i32* %8, align 4
  %25 = sext i32 %24 to i64
  %26 = getelementptr inbounds [100 x [100 x i32]], [100 x [100 x i32]]* %10, i64 0, i64 %25
  %27 = load i32, i32* %9, align 4
  %28 = sext i32 %27 to i64
  %29 = getelementptr inbounds [100 x i32], [100 x i32]* %26, i64 0, i64 %28
  %30 = call i32 (i8*, ...) @__isoc99_scanf(i8* getelementptr inbounds ([3 x i8], [3 x i8]* @.str.1, i64 0, i64 0), i32* %29)
  br label %31

31:                                               ; preds = %23
  %32 = load i32, i32* %9, align 4
  %33 = add nsw i32 %32, 1
  store i32 %33, i32* %9, align 4
  br label %19

34:                                               ; preds = %19
  br label %35

35:                                               ; preds = %34
  %36 = load i32, i32* %8, align 4
  %37 = add nsw i32 %36, 1
  store i32 %37, i32* %8, align 4
  br label %14

38:                                               ; preds = %14
  %39 = load i32, i32* %2, align 4
  %40 = load i32, i32* %3, align 4
  %41 = mul nsw i32 %39, %40
  store i32 %41, i32* %11, align 4
  %42 = load i32, i32* %2, align 4
  %43 = sub nsw i32 %42, 1
  store i32 %43, i32* %4, align 4
  store i32 0, i32* %5, align 4
  %44 = load i32, i32* %3, align 4
  %45 = sub nsw i32 %44, 1
  store i32 %45, i32* %6, align 4
  store i32 0, i32* %7, align 4
  br label %46

46:                                               ; preds = %158, %38
  %47 = load i32, i32* %12, align 4
  %48 = load i32, i32* %11, align 4
  %49 = icmp ne i32 %47, %48
  br i1 %49, label %50, label %163

50:                                               ; preds = %46
  %51 = load i32, i32* %7, align 4
  store i32 %51, i32* %8, align 4
  br label %52

52:                                               ; preds = %67, %50
  %53 = load i32, i32* %8, align 4
  %54 = load i32, i32* %6, align 4
  %55 = icmp sle i32 %53, %54
  br i1 %55, label %56, label %70

56:                                               ; preds = %52
  %57 = load i32, i32* %5, align 4
  %58 = sext i32 %57 to i64
  %59 = getelementptr inbounds [100 x [100 x i32]], [100 x [100 x i32]]* %10, i64 0, i64 %58
  %60 = load i32, i32* %8, align 4
  %61 = sext i32 %60 to i64
  %62 = getelementptr inbounds [100 x i32], [100 x i32]* %59, i64 0, i64 %61
  %63 = load i32, i32* %62, align 4
  %64 = call i32 (i8*, ...) @printf(i8* getelementptr inbounds ([4 x i8], [4 x i8]* @.str.2, i64 0, i64 0), i32 %63)
  %65 = load i32, i32* %12, align 4
  %66 = add nsw i32 %65, 1
  store i32 %66, i32* %12, align 4
  br label %67

67:                                               ; preds = %56
  %68 = load i32, i32* %8, align 4
  %69 = add nsw i32 %68, 1
  store i32 %69, i32* %8, align 4
  br label %52

70:                                               ; preds = %52
  %71 = load i32, i32* %12, align 4
  %72 = load i32, i32* %11, align 4
  %73 = icmp eq i32 %71, %72
  br i1 %73, label %74, label %75

74:                                               ; preds = %70
  br label %163

75:                                               ; preds = %70
  %76 = load i32, i32* %5, align 4
  %77 = add nsw i32 %76, 1
  store i32 %77, i32* %8, align 4
  br label %78

78:                                               ; preds = %93, %75
  %79 = load i32, i32* %8, align 4
  %80 = load i32, i32* %4, align 4
  %81 = icmp sle i32 %79, %80
  br i1 %81, label %82, label %96

82:                                               ; preds = %78
  %83 = load i32, i32* %8, align 4
  %84 = sext i32 %83 to i64
  %85 = getelementptr inbounds [100 x [100 x i32]], [100 x [100 x i32]]* %10, i64 0, i64 %84
  %86 = load i32, i32* %6, align 4
  %87 = sext i32 %86 to i64
  %88 = getelementptr inbounds [100 x i32], [100 x i32]* %85, i64 0, i64 %87
  %89 = load i32, i32* %88, align 4
  %90 = call i32 (i8*, ...) @printf(i8* getelementptr inbounds ([4 x i8], [4 x i8]* @.str.2, i64 0, i64 0), i32 %89)
  %91 = load i32, i32* %12, align 4
  %92 = add nsw i32 %91, 1
  store i32 %92, i32* %12, align 4
  br label %93

93:                                               ; preds = %82
  %94 = load i32, i32* %8, align 4
  %95 = add nsw i32 %94, 1
  store i32 %95, i32* %8, align 4
  br label %78

96:                                               ; preds = %78
  %97 = load i32, i32* %12, align 4
  %98 = load i32, i32* %11, align 4
  %99 = icmp eq i32 %97, %98
  br i1 %99, label %100, label %101

100:                                              ; preds = %96
  br label %163

101:                                              ; preds = %96
  %102 = load i32, i32* %6, align 4
  %103 = sub nsw i32 %102, 1
  store i32 %103, i32* %8, align 4
  br label %104

104:                                              ; preds = %119, %101
  %105 = load i32, i32* %8, align 4
  %106 = load i32, i32* %7, align 4
  %107 = icmp sge i32 %105, %106
  br i1 %107, label %108, label %122

108:                                              ; preds = %104
  %109 = load i32, i32* %4, align 4
  %110 = sext i32 %109 to i64
  %111 = getelementptr inbounds [100 x [100 x i32]], [100 x [100 x i32]]* %10, i64 0, i64 %110
  %112 = load i32, i32* %8, align 4
  %113 = sext i32 %112 to i64
  %114 = getelementptr inbounds [100 x i32], [100 x i32]* %111, i64 0, i64 %113
  %115 = load i32, i32* %114, align 4
  %116 = call i32 (i8*, ...) @printf(i8* getelementptr inbounds ([4 x i8], [4 x i8]* @.str.2, i64 0, i64 0), i32 %115)
  %117 = load i32, i32* %12, align 4
  %118 = add nsw i32 %117, 1
  store i32 %118, i32* %12, align 4
  br label %119

119:                                              ; preds = %108
  %120 = load i32, i32* %8, align 4
  %121 = add nsw i32 %120, -1
  store i32 %121, i32* %8, align 4
  br label %104

122:                                              ; preds = %104
  %123 = load i32, i32* %12, align 4
  %124 = load i32, i32* %11, align 4
  %125 = icmp eq i32 %123, %124
  br i1 %125, label %126, label %127

126:                                              ; preds = %122
  br label %163

127:                                              ; preds = %122
  %128 = load i32, i32* %5, align 4
  %129 = add nsw i32 %128, 1
  store i32 %129, i32* %5, align 4
  %130 = load i32, i32* %7, align 4
  %131 = add nsw i32 %130, 1
  store i32 %131, i32* %7, align 4
  %132 = load i32, i32* %4, align 4
  %133 = sub nsw i32 %132, 1
  store i32 %133, i32* %8, align 4
  br label %134

134:                                              ; preds = %150, %127
  %135 = load i32, i32* %8, align 4
  %136 = load i32, i32* %5, align 4
  %137 = icmp sge i32 %135, %136
  br i1 %137, label %138, label %153

138:                                              ; preds = %134
  %139 = load i32, i32* %8, align 4
  %140 = sext i32 %139 to i64
  %141 = getelementptr inbounds [100 x [100 x i32]], [100 x [100 x i32]]* %10, i64 0, i64 %140
  %142 = load i32, i32* %7, align 4
  %143 = sub nsw i32 %142, 1
  %144 = sext i32 %143 to i64
  %145 = getelementptr inbounds [100 x i32], [100 x i32]* %141, i64 0, i64 %144
  %146 = load i32, i32* %145, align 4
  %147 = call i32 (i8*, ...) @printf(i8* getelementptr inbounds ([4 x i8], [4 x i8]* @.str.2, i64 0, i64 0), i32 %146)
  %148 = load i32, i32* %12, align 4
  %149 = add nsw i32 %148, 1
  store i32 %149, i32* %12, align 4
  br label %150

150:                                              ; preds = %138
  %151 = load i32, i32* %8, align 4
  %152 = add nsw i32 %151, -1
  store i32 %152, i32* %8, align 4
  br label %134

153:                                              ; preds = %134
  %154 = load i32, i32* %12, align 4
  %155 = load i32, i32* %11, align 4
  %156 = icmp eq i32 %154, %155
  br i1 %156, label %157, label %158

157:                                              ; preds = %153
  br label %163

158:                                              ; preds = %153
  %159 = load i32, i32* %4, align 4
  %160 = add nsw i32 %159, -1
  store i32 %160, i32* %4, align 4
  %161 = load i32, i32* %6, align 4
  %162 = add nsw i32 %161, -1
  store i32 %162, i32* %6, align 4
  br label %46

163:                                              ; preds = %157, %126, %100, %74, %46
  ret i32 0
}

declare dso_local i32 @__isoc99_scanf(i8*, ...) #1

declare dso_local i32 @printf(i8*, ...) #1


!llvm.module.flags = !{!0}
!llvm.ident = !{!1}

!0 = !{i32 1, !"wchar_size", i32 4}
!1 = !{!"clang version 10.0.0-4ubuntu1 "}
